target datalayout = "e-m:e-p270:32:32-p271:32:32-p272:64:64-i64:64-i128:128-f80:128-n8:16:32:64-S128"
target triple = "x86_64-pc-linux-gnu"

; Function Attrs: nounwind uwtable
define dso_local i32 @Py_PACK_FULL_VERSION(i32 noundef %0, i32 noundef %1, i32 noundef %2, i32 noundef %3, i32 noundef %4) #0 {
  %6 = alloca i32, align 4
  %7 = alloca i32, align 4
  %8 = alloca i32, align 4
  %9 = alloca i32, align 4
  %10 = alloca i32, align 4
  store i32 %0, ptr %6, align 4, !tbaa !34
  store i32 %1, ptr %7, align 4, !tbaa !34
  store i32 %2, ptr %8, align 4, !tbaa !34
  store i32 %3, ptr %9, align 4, !tbaa !34
  store i32 %4, ptr %10, align 4, !tbaa !34
  %11 = load i32, ptr %6, align 4, !tbaa !34
  %12 = and i32 %11, 255
  %13 = shl i32 %12, 24
  %14 = load i32, ptr %7, align 4, !tbaa !34
  %15 = and i32 %14, 255
  %16 = shl i32 %15, 16
  %17 = or i32 %13, %16
  %18 = load i32, ptr %8, align 4, !tbaa !34
  %19 = and i32 %18, 255
  %20 = shl i32 %19, 8
  %21 = or i32 %17, %20
  %22 = load i32, ptr %9, align 4, !tbaa !34
  %23 = and i32 %22, 15
  %24 = shl i32 %23, 4
  %25 = or i32 %21, %24
  %26 = load i32, ptr %10, align 4, !tbaa !34
  %27 = and i32 %26, 15
  %28 = shl i32 %27, 0
  %29 = or i32 %25, %28
  ret i32 %29
}