; Function Attrs: mustprogress nofree norecurse nosync nounwind willreturn memory(none) uwtable
define dso_local i32 @Py_PACK_FULL_VERSION(i32 noundef %0, i32 noundef %1, i32 noundef %2, i32 noundef %3, i32 noundef %4) local_unnamed_addr #5 {
  %6 = shl i32 %0, 24
  %7 = shl i32 %1, 16
  %8 = and i32 %7, 16711680
  %9 = or disjoint i32 %8, %6
  %10 = shl i32 %2, 8
  %11 = and i32 %10, 65280
  %12 = or disjoint i32 %9, %11
  %13 = shl i32 %3, 4
  %14 = and i32 %13, 240
  %15 = or disjoint i32 %12, %14
  %16 = and i32 %4, 15
  %17 = or disjoint i32 %15, %16
  ret i32 %17
}